; Function Attrs: nounwind uwtable
define internal range(i32 -1, 2) i32 @_sort_job_by_time_used(ptr noundef readonly captures(none) %0, ptr noundef readonly captures(none) %1) #0 {
  %.val = load ptr, ptr %0, align 8
  %3 = getelementptr i8, ptr %.val, i64 8
  %.val.val = load ptr, ptr %3, align 8
  %4 = load ptr, ptr %1, align 8
  %5 = getelementptr inbounds nuw i8, ptr %4, i64 8
  %6 = load ptr, ptr %5, align 8
  %7 = tail call i64 @job_time_used(ptr noundef %.val.val) #11
  %8 = tail call i64 @job_time_used(ptr noundef %6) #11
  %.0.i = tail call range(i32 -1, 2) i32 @llvm.scmp.i32.i64(i64 %7, i64 %8)
  %.b5 = load i1, ptr @reverse_order, align 1
  %9 = sub nsw i32 0, %.0.i
  %spec.select = select i1 %.b5, i32 %9, i32 %.0.i
  ret i32 %spec.select
}